; Function Attrs: mustprogress uwtable
define hidden void @_ZN4cvc58internal16ProofNodeUpdaterC2ERNS0_3EnvERNS0_24ProofNodeUpdaterCallbackEbb(ptr noundef nonnull align 8 dereferenceable(58) %this, ptr noundef nonnull align 8 dereferenceable(576) %env, ptr noundef nonnull align 8 dereferenceable(8) %cb, i1 noundef zeroext %mergeSubproofs, i1 noundef zeroext %autoSym) unnamed_addr #7 align 2 {
entry:
  %frombool = zext i1 %mergeSubproofs to i8
  %frombool1 = zext i1 %autoSym to i8
  tail call void @_ZN4cvc58internal6EnvObjC2ERNS0_3EnvE(ptr noundef nonnull align 8 dereferenceable(16) %this, ptr noundef nonnull align 8 dereferenceable(576) %env)
  store ptr getelementptr inbounds ({ [4 x ptr] }, ptr @_ZTVN4cvc58internal16ProofNodeUpdaterE, i64 0, i32 0, i64 2), ptr %this, align 8
  %d_cb = getelementptr inbounds i8, ptr %this, i64 16
  store ptr %cb, ptr %d_cb, align 8
  %d_debugFreeAssumps = getelementptr inbounds i8, ptr %this, i64 24
  store i8 0, ptr %d_debugFreeAssumps, align 8
  %d_freeAssumps = getelementptr inbounds i8, ptr %this, i64 32
  tail call void @llvm.memset.p0.i64(ptr noundef nonnull align 8 dereferenceable(24) %d_freeAssumps, i8 0, i64 24, i1 false)
  %d_mergeSubproofs = getelementptr inbounds i8, ptr %this, i64 56
  store i8 %frombool, ptr %d_mergeSubproofs, align 8
  %d_autoSym = getelementptr inbounds i8, ptr %this, i64 57
  store i8 %frombool1, ptr %d_autoSym, align 1
  ret void
}